target datalayout = "e-m:e-p270:32:32-p271:32:32-p272:64:64-i64:64-i128:128-f80:128-n8:16:32:64-S128"
target triple = "x86_64-pc-linux-gnu"

%struct.ForEachState = type { ptr, i32 }
%struct.List = type { i32, i32, i32, ptr, [0 x %union.ListCell] }
%union.ListCell = type { ptr }
%struct.nameData = type { [64 x i8] }
%struct.HeapTupleData = type { i32, %struct.ItemPointerData, i32, ptr }
%struct.ItemPointerData = type { %struct.BlockIdData, i16 }
%struct.BlockIdData = type { i16, i16 }
%struct.HeapTupleHeaderData = type { %union.anon, %struct.ItemPointerData, i16, i16, i8, [0 x i8] }
%union.anon = type { %struct.HeapTupleFields }
%struct.HeapTupleFields = type { i32, i32, %union.anon.0 }
%union.anon.0 = type { i32 }
%struct.FormData_pg_ts_parser = type { i32, %struct.nameData, i32, i32, i32, i32, i32, i32 }

@.str.1 = private unnamed_addr constant [12 x i8] c"namespace.c\00", align 1
@myTempNamespace = internal global i32 0, align 4
@activeSearchPath = internal global ptr null, align 8
@.str.39 = private unnamed_addr constant [46 x i8] c"cache lookup failed for text search parser %u\00", align 1
@__func__.TSParserIsVisibleExt = private unnamed_addr constant [21 x i8] c"TSParserIsVisibleExt\00", align 1

; Function Attrs: inlinehint nounwind uwtable
define internal i64 @PointerGetDatum(ptr noundef %0) #7 {
  %2 = alloca ptr, align 8
  store ptr %0, ptr %2, align 8
  %3 = load ptr, ptr %2, align 8
  %4 = ptrtoint ptr %3 to i64
  ret i64 %4
}

; Function Attrs: inlinehint nounwind uwtable
define internal ptr @GETSTRUCT(ptr noundef %0) #7 {
  %2 = alloca ptr, align 8
  store ptr %0, ptr %2, align 8
  %3 = load ptr, ptr %2, align 8
  %4 = getelementptr inbounds nuw %struct.HeapTupleData, ptr %3, i32 0, i32 3
  %5 = load ptr, ptr %4, align 8
  %6 = load ptr, ptr %2, align 8
  %7 = getelementptr inbounds nuw %struct.HeapTupleData, ptr %6, i32 0, i32 3
  %8 = load ptr, ptr %7, align 8
  %9 = getelementptr inbounds nuw %struct.HeapTupleHeaderData, ptr %8, i32 0, i32 4
  %10 = load i8, ptr %9, align 2
  %11 = zext i8 %10 to i32
  %12 = sext i32 %11 to i64
  %13 = getelementptr inbounds i8, ptr %5, i64 %12
  ret ptr %13
}

; Function Attrs: inlinehint nounwind uwtable
define internal i64 @ObjectIdGetDatum(i32 noundef %0) #7 {
  %2 = alloca i32, align 4
  store i32 %0, ptr %2, align 4
  %3 = load i32, ptr %2, align 4
  %4 = zext i32 %3 to i64
  ret i64 %4
}

; Function Attrs: nounwind uwtable
define internal zeroext i1 @TSParserIsVisibleExt(i32 noundef %0, ptr noundef %1) #0 {
  %3 = alloca i1, align 1
  %4 = alloca i32, align 4
  %5 = alloca ptr, align 8
  %6 = alloca ptr, align 8
  %7 = alloca ptr, align 8
  %8 = alloca i32, align 4
  %9 = alloca i8, align 1
  %10 = alloca i32, align 4
  %11 = alloca ptr, align 8
  %12 = alloca ptr, align 8
  %13 = alloca %struct.ForEachState, align 8
  %14 = alloca i32, align 4
  store i32 %0, ptr %4, align 4
  store ptr %1, ptr %5, align 8
  call void @llvm.lifetime.start.p0(i64 8, ptr %6) #14
  call void @llvm.lifetime.start.p0(i64 8, ptr %7) #14
  call void @llvm.lifetime.start.p0(i64 4, ptr %8) #14
  call void @llvm.lifetime.start.p0(i64 1, ptr %9) #14
  %15 = load i32, ptr %4, align 4
  %16 = call i64 @ObjectIdGetDatum(i32 noundef %15)
  %17 = call ptr @SearchSysCache1(i32 noundef 78, i64 noundef %16)
  store ptr %17, ptr %6, align 8
  %18 = load ptr, ptr %6, align 8
  %19 = icmp ne ptr %18, null
  br i1 %19, label %37, label %20

20:                                               ; preds = %2
  %21 = load ptr, ptr %5, align 8
  %22 = icmp ne ptr %21, null
  br i1 %22, label %23, label %25

23:                                               ; preds = %20
  %24 = load ptr, ptr %5, align 8
  store i8 1, ptr %24, align 1
  store i1 false, ptr %3, align 1
  store i32 1, ptr %10, align 4
  br label %118

25:                                               ; preds = %20
  br label %26

26:                                               ; preds = %25
  br i1 true, label %27, label %29

27:                                               ; preds = %26
  %28 = call zeroext i1 @errstart_cold(i32 noundef 21, ptr noundef null) #16
  br i1 %28, label %31, label %34

29:                                               ; preds = %26
  %30 = call zeroext i1 @errstart(i32 noundef 21, ptr noundef null)
  br i1 %30, label %31, label %34

31:                                               ; preds = %29, %27
  %32 = load i32, ptr %4, align 4
  %33 = call i32 (ptr, ...) @errmsg_internal(ptr noundef @.str.39, i32 noundef %32)
  call void @errfinish(ptr noundef @.str.1, i32 noundef 2801, ptr noundef @__func__.TSParserIsVisibleExt)
  br label %34

34:                                               ; preds = %31, %29, %27
  unreachable

35:                                               ; No predecessors!
  br label %36

36:                                               ; preds = %35
  br label %37

37:                                               ; preds = %36, %2
  %38 = load ptr, ptr %6, align 8
  %39 = call ptr @GETSTRUCT(ptr noundef %38)
  store ptr %39, ptr %7, align 8
  call void @recomputeNamespacePath()
  %40 = load ptr, ptr %7, align 8
  %41 = getelementptr inbounds nuw %struct.FormData_pg_ts_parser, ptr %40, i32 0, i32 2
  %42 = load i32, ptr %41, align 4
  store i32 %42, ptr %8, align 4
  %43 = load i32, ptr %8, align 4
  %44 = icmp ne i32 %43, 11
  br i1 %44, label %45, label %50

45:                                               ; preds = %37
  %46 = load ptr, ptr @activeSearchPath, align 8
  %47 = load i32, ptr %8, align 4
  %48 = call zeroext i1 @list_member_oid(ptr noundef %46, i32 noundef %47)
  br i1 %48, label %50, label %49

49:                                               ; preds = %45
  store i8 0, ptr %9, align 1
  br label %114

50:                                               ; preds = %45, %37
  call void @llvm.lifetime.start.p0(i64 8, ptr %11) #14
  %51 = load ptr, ptr %7, align 8
  %52 = getelementptr inbounds nuw %struct.FormData_pg_ts_parser, ptr %51, i32 0, i32 1
  %53 = getelementptr inbounds nuw %struct.nameData, ptr %52, i32 0, i32 0
  %54 = getelementptr inbounds [64 x i8], ptr %53, i64 0, i64 0
  store ptr %54, ptr %11, align 8
  call void @llvm.lifetime.start.p0(i64 8, ptr %12) #14
  store i8 0, ptr %9, align 1
  call void @llvm.lifetime.start.p0(i64 16, ptr %13) #14
  %55 = getelementptr inbounds nuw %struct.ForEachState, ptr %13, i32 0, i32 0
  %56 = load ptr, ptr @activeSearchPath, align 8
  store ptr %56, ptr %55, align 8
  %57 = getelementptr inbounds nuw %struct.ForEachState, ptr %13, i32 0, i32 1
  store i32 0, ptr %57, align 8
  %58 = getelementptr i8, ptr %13, i64 12
  call void @llvm.memset.p0.i64(ptr align 4 %58, i8 0, i64 4, i1 false)
  br label %59

59:                                               ; preds = %108, %50
  %60 = getelementptr inbounds nuw %struct.ForEachState, ptr %13, i32 0, i32 0
  %61 = load ptr, ptr %60, align 8
  %62 = icmp ne ptr %61, null
  br i1 %62, label %63, label %80

63:                                               ; preds = %59
  %64 = getelementptr inbounds nuw %struct.ForEachState, ptr %13, i32 0, i32 1
  %65 = load i32, ptr %64, align 8
  %66 = getelementptr inbounds nuw %struct.ForEachState, ptr %13, i32 0, i32 0
  %67 = load ptr, ptr %66, align 8
  %68 = getelementptr inbounds nuw %struct.List, ptr %67, i32 0, i32 1
  %69 = load i32, ptr %68, align 4
  %70 = icmp slt i32 %65, %69
  br i1 %70, label %71, label %80

71:                                               ; preds = %63
  %72 = getelementptr inbounds nuw %struct.ForEachState, ptr %13, i32 0, i32 0
  %73 = load ptr, ptr %72, align 8
  %74 = getelementptr inbounds nuw %struct.List, ptr %73, i32 0, i32 3
  %75 = load ptr, ptr %74, align 8
  %76 = getelementptr inbounds nuw %struct.ForEachState, ptr %13, i32 0, i32 1
  %77 = load i32, ptr %76, align 8
  %78 = sext i32 %77 to i64
  %79 = getelementptr inbounds %union.ListCell, ptr %75, i64 %78
  store ptr %79, ptr %12, align 8
  br label %81

80:                                               ; preds = %63, %59
  store ptr null, ptr %12, align 8
  br label %81

81:                                               ; preds = %80, %71
  %82 = phi i32 [ 1, %71 ], [ 0, %80 ]
  %83 = icmp ne i32 %82, 0
  br i1 %83, label %85, label %84

84:                                               ; preds = %81
  store i32 4, ptr %10, align 4
  br label %112

85:                                               ; preds = %81
  call void @llvm.lifetime.start.p0(i64 4, ptr %14) #14
  %86 = load ptr, ptr %12, align 8
  %87 = load i32, ptr %86, align 8
  store i32 %87, ptr %14, align 4
  %88 = load i32, ptr %14, align 4
  %89 = load i32, ptr @myTempNamespace, align 4
  %90 = icmp eq i32 %88, %89
  br i1 %90, label %91, label %92

91:                                               ; preds = %85
  store i32 6, ptr %10, align 4
  br label %105

92:                                               ; preds = %85
  %93 = load i32, ptr %14, align 4
  %94 = load i32, ptr %8, align 4
  %95 = icmp eq i32 %93, %94
  br i1 %95, label %96, label %97

96:                                               ; preds = %92
  store i8 1, ptr %9, align 1
  store i32 4, ptr %10, align 4
  br label %105

97:                                               ; preds = %92
  %98 = load ptr, ptr %11, align 8
  %99 = call i64 @PointerGetDatum(ptr noundef %98)
  %100 = load i32, ptr %14, align 4
  %101 = call i64 @ObjectIdGetDatum(i32 noundef %100)
  %102 = call zeroext i1 @SearchSysCacheExists(i32 noundef 77, i64 noundef %99, i64 noundef %101, i64 noundef 0, i64 noundef 0)
  br i1 %102, label %103, label %104

103:                                              ; preds = %97
  store i32 4, ptr %10, align 4
  br label %105

104:                                              ; preds = %97
  store i32 0, ptr %10, align 4
  br label %105

105:                                              ; preds = %104, %103, %96, %91
  call void @llvm.lifetime.end.p0(i64 4, ptr %14) #14
  %106 = load i32, ptr %10, align 4
  switch i32 %106, label %112 [
    i32 0, label %107
    i32 6, label %108
  ]

107:                                              ; preds = %105
  br label %108

108:                                              ; preds = %107, %105
  %109 = getelementptr inbounds nuw %struct.ForEachState, ptr %13, i32 0, i32 1
  %110 = load i32, ptr %109, align 8
  %111 = add i32 %110, 1
  store i32 %111, ptr %109, align 8
  br label %59, !llvm.loop !35

112:                                              ; preds = %105, %84
  call void @llvm.lifetime.end.p0(i64 16, ptr %13) #14
  br label %113

113:                                              ; preds = %112
  call void @llvm.lifetime.end.p0(i64 8, ptr %12) #14
  call void @llvm.lifetime.end.p0(i64 8, ptr %11) #14
  br label %114

114:                                              ; preds = %113, %49
  %115 = load ptr, ptr %6, align 8
  call void @ReleaseSysCache(ptr noundef %115)
  %116 = load i8, ptr %9, align 1, !range !4, !noundef !5
  %117 = trunc i8 %116 to i1
  store i1 %117, ptr %3, align 1
  store i32 1, ptr %10, align 4
  br label %118

118:                                              ; preds = %114, %23
  call void @llvm.lifetime.end.p0(i64 1, ptr %9) #14
  call void @llvm.lifetime.end.p0(i64 4, ptr %8) #14
  call void @llvm.lifetime.end.p0(i64 8, ptr %7) #14
  call void @llvm.lifetime.end.p0(i64 8, ptr %6) #14
  %119 = load i1, ptr %3, align 1
  ret i1 %119
}