; Function Attrs: nounwind uwtable
define internal fastcc noundef zeroext i1 @TSParserIsVisibleExt(i32 noundef %0, ptr noundef writeonly captures(address_is_null) %1) unnamed_addr #0 {
  %3 = zext i32 %0 to i64
  %4 = tail call ptr @SearchSysCache1(i32 noundef 78, i64 noundef %3) #19
  %.not = icmp eq ptr %4, null
  br i1 %.not, label %5, label %10

5:                                                ; preds = %2
  %.not31 = icmp eq ptr %1, null
  br i1 %.not31, label %7, label %6

6:                                                ; preds = %5
  store i8 1, ptr %1, align 1
  br label %45

7:                                                ; preds = %5
  %8 = tail call zeroext i1 @errstart_cold(i32 noundef 21, ptr noundef null) #21
  tail call void @llvm.assume(i1 %8)
  %9 = tail call i32 (ptr, ...) @errmsg_internal(ptr noundef nonnull @.str.39, i32 noundef %0) #19
  tail call void @errfinish(ptr noundef nonnull @.str.1, i32 noundef 2801, ptr noundef nonnull @__func__.TSParserIsVisibleExt) #19
  unreachable

10:                                               ; preds = %2
  %11 = getelementptr i8, ptr %4, i64 16
  %.val = load ptr, ptr %11, align 8
  %12 = getelementptr inbounds nuw i8, ptr %.val, i64 22
  %13 = load i8, ptr %12, align 2
  %14 = zext i8 %13 to i64
  %15 = getelementptr inbounds nuw i8, ptr %.val, i64 %14
  tail call fastcc void @recomputeNamespacePath()
  %16 = getelementptr inbounds nuw i8, ptr %15, i64 68
  %17 = load i32, ptr %16, align 4
  %.not32 = icmp eq i32 %17, 11
  br i1 %.not32, label %21, label %18

18:                                               ; preds = %10
  %19 = load ptr, ptr @activeSearchPath, align 8
  %20 = tail call zeroext i1 @list_member_oid(ptr noundef %19, i32 noundef %17) #19
  br i1 %20, label %21, label %.thread

21:                                               ; preds = %18, %10
  %22 = load ptr, ptr @activeSearchPath, align 8
  %23 = getelementptr inbounds nuw i8, ptr %22, i64 4
  %.not33 = icmp eq ptr %22, null
  br i1 %.not33, label %.thread, label %.lr.ph

.lr.ph:                                           ; preds = %21
  %24 = getelementptr inbounds nuw i8, ptr %15, i64 4
  %25 = getelementptr inbounds nuw i8, ptr %22, i64 16
  %26 = ptrtoint ptr %24 to i64
  %27 = load i32, ptr %23, align 4
  %28 = icmp sgt i32 %27, 0
  br i1 %28, label %.lr.ph52.preheader, label %.thread

.lr.ph52.preheader:                               ; preds = %.lr.ph
  %.pre55 = load i32, ptr @myTempNamespace, align 4
  br label %.lr.ph52

.lr.ph52:                                         ; preds = %.lr.ph52.preheader, %40
  %29 = phi i32 [ %27, %.lr.ph52.preheader ], [ %41, %40 ]
  %30 = phi i32 [ %.pre55, %.lr.ph52.preheader ], [ %42, %40 ]
  %indvars.iv = phi i64 [ 0, %.lr.ph52.preheader ], [ %indvars.iv.next, %40 ]
  %31 = load ptr, ptr %25, align 8
  %32 = getelementptr inbounds nuw %union.ListCell, ptr %31, i64 %indvars.iv
  %33 = load i32, ptr %32, align 8
  %34 = icmp eq i32 %33, %30
  br i1 %34, label %40, label %35

35:                                               ; preds = %.lr.ph52
  %36 = icmp eq i32 %33, %17
  br i1 %36, label %.thread, label %37

37:                                               ; preds = %35
  %38 = zext i32 %33 to i64
  %39 = tail call zeroext i1 @SearchSysCacheExists(i32 noundef 77, i64 noundef %26, i64 noundef %38, i64 noundef 0, i64 noundef 0) #19
  br i1 %39, label %.thread, label %._crit_edge

._crit_edge:                                      ; preds = %37
  %.pre = load i32, ptr @myTempNamespace, align 4
  %.pre56 = load i32, ptr %23, align 4
  br label %40

40:                                               ; preds = %._crit_edge, %.lr.ph52
  %41 = phi i32 [ %29, %.lr.ph52 ], [ %.pre56, %._crit_edge ]
  %42 = phi i32 [ %30, %.lr.ph52 ], [ %.pre, %._crit_edge ]
  %indvars.iv.next = add nuw nsw i64 %indvars.iv, 1
  %43 = sext i32 %41 to i64
  %44 = icmp slt i64 %indvars.iv.next, %43
  br i1 %44, label %.lr.ph52, label %.thread

.thread:                                          ; preds = %37, %35, %40, %21, %.lr.ph, %18
  %.023 = phi i1 [ false, %18 ], [ false, %21 ], [ false, %.lr.ph ], [ false, %37 ], [ true, %35 ], [ false, %40 ]
  tail call void @ReleaseSysCache(ptr noundef nonnull %4) #19
  br label %45

45:                                               ; preds = %.thread, %6
  %.0 = phi i1 [ %.023, %.thread ], [ false, %6 ]
  ret i1 %.0
}